target datalayout = "e-m:e-p270:32:32-p271:32:32-p272:64:64-i64:64-i128:128-f80:128-n8:16:32:64-S128"
target triple = "x86_64-unknown-linux-gnu"

%struct.sp_int = type { i32, i32, [129 x i64] }

; Function Attrs: nounwind uwtable
define internal i32 @wc_ecc_cmp_param(ptr noundef %curveParam, ptr noundef %param, i32 noundef %paramSz, i32 noundef %encType) #0 {
entry:
  %retval = alloca i32, align 4
  %curveParam.addr = alloca ptr, align 8
  %param.addr = alloca ptr, align 8
  %paramSz.addr = alloca i32, align 4
  %encType.addr = alloca i32, align 4
  %err = alloca i32, align 4
  %a = alloca [1 x %struct.sp_int], align 16
  %b = alloca [1 x %struct.sp_int], align 16
  store ptr %curveParam, ptr %curveParam.addr, align 8
  store ptr %param, ptr %param.addr, align 8
  store i32 %paramSz, ptr %paramSz.addr, align 4
  store i32 %encType, ptr %encType.addr, align 4
  store i32 0, ptr %err, align 4
  %0 = load ptr, ptr %param.addr, align 8
  %cmp = icmp eq ptr %0, null
  br i1 %cmp, label %if.then, label %lor.lhs.false

lor.lhs.false:                                    ; preds = %entry
  %1 = load ptr, ptr %curveParam.addr, align 8
  %cmp1 = icmp eq ptr %1, null
  br i1 %cmp1, label %if.then, label %if.end

if.then:                                          ; preds = %lor.lhs.false, %entry
  store i32 -173, ptr %retval, align 4
  br label %return

if.end:                                           ; preds = %lor.lhs.false
  %2 = load i32, ptr %encType.addr, align 4
  %cmp2 = icmp eq i32 %2, 1
  br i1 %cmp2, label %if.then3, label %if.end4

if.then3:                                         ; preds = %if.end
  %3 = load ptr, ptr %curveParam.addr, align 8
  %4 = load ptr, ptr %param.addr, align 8
  %5 = load i32, ptr %paramSz.addr, align 4
  %conv = zext i32 %5 to i64
  %call = call i32 @strncmp(ptr noundef %3, ptr noundef %4, i64 noundef %conv) #6
  store i32 %call, ptr %retval, align 4
  br label %return

if.end4:                                          ; preds = %if.end
  %arraydecay = getelementptr inbounds [1 x %struct.sp_int], ptr %a, i64 0, i64 0
  %arraydecay5 = getelementptr inbounds [1 x %struct.sp_int], ptr %b, i64 0, i64 0
  %call6 = call i32 @sp_init_multi(ptr noundef %arraydecay, ptr noundef %arraydecay5, ptr noundef null, ptr noundef null, ptr noundef null, ptr noundef null)
  store i32 %call6, ptr %err, align 4
  %cmp7 = icmp ne i32 %call6, 0
  br i1 %cmp7, label %if.then9, label %if.end10

if.then9:                                         ; preds = %if.end4
  %6 = load i32, ptr %err, align 4
  store i32 %6, ptr %retval, align 4
  br label %return

if.end10:                                         ; preds = %if.end4
  %7 = load i32, ptr %err, align 4
  %cmp11 = icmp eq i32 %7, 0
  br i1 %cmp11, label %if.then13, label %if.end16

if.then13:                                        ; preds = %if.end10
  %arraydecay14 = getelementptr inbounds [1 x %struct.sp_int], ptr %a, i64 0, i64 0
  %8 = load ptr, ptr %param.addr, align 8
  %9 = load i32, ptr %paramSz.addr, align 4
  %call15 = call i32 @sp_read_unsigned_bin(ptr noundef %arraydecay14, ptr noundef %8, i32 noundef %9)
  store i32 %call15, ptr %err, align 4
  br label %if.end16

if.end16:                                         ; preds = %if.then13, %if.end10
  %10 = load i32, ptr %err, align 4
  %cmp17 = icmp eq i32 %10, 0
  br i1 %cmp17, label %if.then19, label %if.end22

if.then19:                                        ; preds = %if.end16
  %arraydecay20 = getelementptr inbounds [1 x %struct.sp_int], ptr %b, i64 0, i64 0
  %11 = load ptr, ptr %curveParam.addr, align 8
  %call21 = call i32 @sp_read_radix(ptr noundef %arraydecay20, ptr noundef %11, i32 noundef 16)
  store i32 %call21, ptr %err, align 4
  br label %if.end22

if.end22:                                         ; preds = %if.then19, %if.end16
  %12 = load i32, ptr %err, align 4
  %cmp23 = icmp eq i32 %12, 0
  br i1 %cmp23, label %if.then25, label %if.end33

if.then25:                                        ; preds = %if.end22
  %arraydecay26 = getelementptr inbounds [1 x %struct.sp_int], ptr %a, i64 0, i64 0
  %arraydecay27 = getelementptr inbounds [1 x %struct.sp_int], ptr %b, i64 0, i64 0
  %call28 = call i32 @sp_cmp(ptr noundef %arraydecay26, ptr noundef %arraydecay27)
  %cmp29 = icmp ne i32 %call28, 0
  br i1 %cmp29, label %if.then31, label %if.else

if.then31:                                        ; preds = %if.then25
  store i32 -1, ptr %err, align 4
  br label %if.end32

if.else:                                          ; preds = %if.then25
  store i32 0, ptr %err, align 4
  br label %if.end32

if.end32:                                         ; preds = %if.else, %if.then31
  br label %if.end33

if.end33:                                         ; preds = %if.end32, %if.end22
  %arraydecay34 = getelementptr inbounds [1 x %struct.sp_int], ptr %a, i64 0, i64 0
  call void @sp_clear(ptr noundef %arraydecay34)
  %arraydecay35 = getelementptr inbounds [1 x %struct.sp_int], ptr %b, i64 0, i64 0
  call void @sp_clear(ptr noundef %arraydecay35)
  %13 = load i32, ptr %err, align 4
  store i32 %13, ptr %retval, align 4
  br label %return

return:                                           ; preds = %if.end33, %if.then9, %if.then3, %if.then
  %14 = load i32, ptr %retval, align 4
  ret i32 %14
}