; Function Attrs: nounwind uwtable
define internal fastcc i32 @wc_ecc_cmp_param(ptr noundef %curveParam, ptr noundef %param, i32 noundef %paramSz, i32 noundef range(i32 1, 3) %encType) unnamed_addr #2 {
entry:
  %a = alloca [1 x %struct.sp_int], align 16
  %b = alloca [1 x %struct.sp_int], align 16
  %cmp = icmp eq ptr %param, null
  %cmp1 = icmp eq ptr %curveParam, null
  %or.cond = or i1 %cmp1, %cmp
  br i1 %or.cond, label %return, label %if.end

if.end:                                           ; preds = %entry
  %cmp2 = icmp eq i32 %encType, 1
  br i1 %cmp2, label %if.then3, label %if.end4

if.then3:                                         ; preds = %if.end
  %conv = zext i32 %paramSz to i64
  %call = tail call i32 @strncmp(ptr noundef nonnull %curveParam, ptr noundef nonnull %param, i64 noundef %conv) #20
  br label %return

if.end4:                                          ; preds = %if.end
  %call6 = call i32 @sp_init_multi(ptr noundef nonnull %a, ptr noundef nonnull %b, ptr noundef null, ptr noundef null, ptr noundef null, ptr noundef null) #19
  %cmp7.not = icmp eq i32 %call6, 0
  br i1 %cmp7.not, label %if.then13, label %return

if.then13:                                        ; preds = %if.end4
  %call15 = call i32 @sp_read_unsigned_bin(ptr noundef nonnull %a, ptr noundef nonnull %param, i32 noundef %paramSz) #19
  %cmp17 = icmp eq i32 %call15, 0
  br i1 %cmp17, label %if.end22, label %if.end33

if.end22:                                         ; preds = %if.then13
  %call21 = call i32 @sp_read_radix(ptr noundef nonnull %b, ptr noundef nonnull %curveParam, i32 noundef 16) #19
  %cmp23 = icmp eq i32 %call21, 0
  br i1 %cmp23, label %if.then25, label %if.end33

if.then25:                                        ; preds = %if.end22
  %call28 = call i32 @sp_cmp(ptr noundef nonnull %a, ptr noundef nonnull %b) #19
  %cmp29.not = icmp ne i32 %call28, 0
  %. = sext i1 %cmp29.not to i32
  br label %if.end33

if.end33:                                         ; preds = %if.then13, %if.then25, %if.end22
  %err.2 = phi i32 [ %call21, %if.end22 ], [ %., %if.then25 ], [ %call15, %if.then13 ]
  call void @sp_clear(ptr noundef nonnull %a) #19
  call void @sp_clear(ptr noundef nonnull %b) #19
  br label %return

return:                                           ; preds = %if.end4, %entry, %if.end33, %if.then3
  %retval.0 = phi i32 [ %call, %if.then3 ], [ %err.2, %if.end33 ], [ -173, %entry ], [ %call6, %if.end4 ]
  ret i32 %retval.0
}